target datalayout = "e-m:e-p270:32:32-p271:32:32-p272:64:64-i64:64-i128:128-f80:128-n8:16:32:64-S128"
target triple = "x86_64-pc-linux-gnu"

%struct.png_struct_def = type { [1 x %struct.__jmp_buf_tag], ptr, ptr, i64, ptr, ptr, ptr, ptr, ptr, ptr, ptr, ptr, ptr, i8, i8, i32, i32, i32, i32, %struct.z_stream_s, ptr, i32, i32, i32, i32, i32, i32, i32, i32, i32, i32, i32, i32, i32, i32, i32, i32, i32, i32, i32, i32, i32, i64, i32, i32, i32, ptr, ptr, ptr, ptr, i64, i32, i32, ptr, i16, i32, i16, i8, i8, i8, i8, i8, i8, i8, i8, i8, i8, i8, i8, i8, i8, i8, i16, i8, i32, %struct.png_color_16_struct, %struct.png_color_16_struct, ptr, i32, i32, %struct.png_xy, i32, i32, i32, i32, i32, ptr, ptr, ptr, ptr, ptr, ptr, %struct.png_color_8_struct, %struct.png_color_8_struct, ptr, %struct.png_color_16_struct, ptr, ptr, ptr, ptr, ptr, ptr, ptr, ptr, ptr, i32, i32, i64, i64, i64, i64, i32, i32, ptr, ptr, i32, [29 x i8], i32, ptr, ptr, i32, i32, ptr, i8, i8, i16, i16, ptr, i32, i8, ptr, ptr, ptr, ptr, ptr, ptr, ptr, i8, i32, i32, i32, i64, %struct.png_unknown_chunk_t, i64, ptr, i64, i32, i32, ptr, [4 x ptr] }
%struct.__jmp_buf_tag = type { [8 x i64], i32, %struct.__sigset_t }
%struct.__sigset_t = type { [16 x i64] }
%struct.z_stream_s = type { ptr, i32, i64, ptr, i32, i64, ptr, ptr, ptr, ptr, ptr, i32, i64, i64 }
%struct.png_xy = type { i32, i32, i32, i32, i32, i32, i32, i32 }
%struct.png_color_8_struct = type { i8, i8, i8, i8, i8 }
%struct.png_color_16_struct = type { i8, i16, i16, i16, i16 }
%struct.png_unknown_chunk_t = type { [5 x i8], ptr, i64, i8 }

@.str.20 = private unnamed_addr constant [29 x i8] c"Invalid sBIT depth specified\00", align 1

; Function Attrs: nounwind uwtable
define void @png_write_sBIT(ptr noalias noundef %0, ptr noundef %1, i32 noundef %2) #0 {
  %4 = alloca ptr, align 8
  %5 = alloca ptr, align 8
  %6 = alloca i32, align 4
  %7 = alloca [4 x i8], align 1
  %8 = alloca i64, align 8
  %9 = alloca i8, align 1
  %10 = alloca i32, align 4
  store ptr %0, ptr %4, align 8, !tbaa !11
  store ptr %1, ptr %5, align 8, !tbaa !110
  store i32 %2, ptr %6, align 4, !tbaa !8
  call void @llvm.lifetime.start.p0(i64 4, ptr %7) #7
  call void @llvm.lifetime.start.p0(i64 8, ptr %8) #7
  %11 = load i32, ptr %6, align 4, !tbaa !8
  %12 = and i32 %11, 2
  %13 = icmp ne i32 %12, 0
  br i1 %13, label %14, label %85

14:                                               ; preds = %3
  call void @llvm.lifetime.start.p0(i64 1, ptr %9) #7
  %15 = load i32, ptr %6, align 4, !tbaa !8
  %16 = icmp eq i32 %15, 3
  br i1 %16, label %17, label %18

17:                                               ; preds = %14
  br label %23

18:                                               ; preds = %14
  %19 = load ptr, ptr %4, align 8, !tbaa !11
  %20 = getelementptr inbounds nuw %struct.png_struct_def, ptr %19, i32 0, i32 64
  %21 = load i8, ptr %20, align 1, !tbaa !51
  %22 = zext i8 %21 to i32
  br label %23

23:                                               ; preds = %18, %17
  %24 = phi i32 [ 8, %17 ], [ %22, %18 ]
  %25 = trunc i32 %24 to i8
  store i8 %25, ptr %9, align 1, !tbaa !10
  %26 = load ptr, ptr %5, align 8, !tbaa !110
  %27 = getelementptr inbounds nuw %struct.png_color_8_struct, ptr %26, i32 0, i32 0
  %28 = load i8, ptr %27, align 1, !tbaa !112
  %29 = zext i8 %28 to i32
  %30 = icmp eq i32 %29, 0
  br i1 %30, label %67, label %31

31:                                               ; preds = %23
  %32 = load ptr, ptr %5, align 8, !tbaa !110
  %33 = getelementptr inbounds nuw %struct.png_color_8_struct, ptr %32, i32 0, i32 0
  %34 = load i8, ptr %33, align 1, !tbaa !112
  %35 = zext i8 %34 to i32
  %36 = load i8, ptr %9, align 1, !tbaa !10
  %37 = zext i8 %36 to i32
  %38 = icmp sgt i32 %35, %37
  br i1 %38, label %67, label %39

39:                                               ; preds = %31
  %40 = load ptr, ptr %5, align 8, !tbaa !110
  %41 = getelementptr inbounds nuw %struct.png_color_8_struct, ptr %40, i32 0, i32 1
  %42 = load i8, ptr %41, align 1, !tbaa !113
  %43 = zext i8 %42 to i32
  %44 = icmp eq i32 %43, 0
  br i1 %44, label %67, label %45

45:                                               ; preds = %39
  %46 = load ptr, ptr %5, align 8, !tbaa !110
  %47 = getelementptr inbounds nuw %struct.png_color_8_struct, ptr %46, i32 0, i32 1
  %48 = load i8, ptr %47, align 1, !tbaa !113
  %49 = zext i8 %48 to i32
  %50 = load i8, ptr %9, align 1, !tbaa !10
  %51 = zext i8 %50 to i32
  %52 = icmp sgt i32 %49, %51
  br i1 %52, label %67, label %53

53:                                               ; preds = %45
  %54 = load ptr, ptr %5, align 8, !tbaa !110
  %55 = getelementptr inbounds nuw %struct.png_color_8_struct, ptr %54, i32 0, i32 2
  %56 = load i8, ptr %55, align 1, !tbaa !114
  %57 = zext i8 %56 to i32
  %58 = icmp eq i32 %57, 0
  br i1 %58, label %67, label %59

59:                                               ; preds = %53
  %60 = load ptr, ptr %5, align 8, !tbaa !110
  %61 = getelementptr inbounds nuw %struct.png_color_8_struct, ptr %60, i32 0, i32 2
  %62 = load i8, ptr %61, align 1, !tbaa !114
  %63 = zext i8 %62 to i32
  %64 = load i8, ptr %9, align 1, !tbaa !10
  %65 = zext i8 %64 to i32
  %66 = icmp sgt i32 %63, %65
  br i1 %66, label %67, label %69

67:                                               ; preds = %59, %53, %45, %39, %31, %23
  %68 = load ptr, ptr %4, align 8, !tbaa !11
  call void @png_warning(ptr noundef %68, ptr noundef @.str.20)
  store i32 1, ptr %10, align 4
  br label %82

69:                                               ; preds = %59
  %70 = load ptr, ptr %5, align 8, !tbaa !110
  %71 = getelementptr inbounds nuw %struct.png_color_8_struct, ptr %70, i32 0, i32 0
  %72 = load i8, ptr %71, align 1, !tbaa !112
  %73 = getelementptr inbounds [4 x i8], ptr %7, i64 0, i64 0
  store i8 %72, ptr %73, align 1, !tbaa !10
  %74 = load ptr, ptr %5, align 8, !tbaa !110
  %75 = getelementptr inbounds nuw %struct.png_color_8_struct, ptr %74, i32 0, i32 1
  %76 = load i8, ptr %75, align 1, !tbaa !113
  %77 = getelementptr inbounds [4 x i8], ptr %7, i64 0, i64 1
  store i8 %76, ptr %77, align 1, !tbaa !10
  %78 = load ptr, ptr %5, align 8, !tbaa !110
  %79 = getelementptr inbounds nuw %struct.png_color_8_struct, ptr %78, i32 0, i32 2
  %80 = load i8, ptr %79, align 1, !tbaa !114
  %81 = getelementptr inbounds [4 x i8], ptr %7, i64 0, i64 2
  store i8 %80, ptr %81, align 1, !tbaa !10
  store i64 3, ptr %8, align 8, !tbaa !30
  store i32 0, ptr %10, align 4
  br label %82

82:                                               ; preds = %69, %67
  call void @llvm.lifetime.end.p0(i64 1, ptr %9) #7
  %83 = load i32, ptr %10, align 4
  switch i32 %83, label %141 [
    i32 0, label %84
  ]

84:                                               ; preds = %82
  br label %108

85:                                               ; preds = %3
  %86 = load ptr, ptr %5, align 8, !tbaa !110
  %87 = getelementptr inbounds nuw %struct.png_color_8_struct, ptr %86, i32 0, i32 3
  %88 = load i8, ptr %87, align 1, !tbaa !115
  %89 = zext i8 %88 to i32
  %90 = icmp eq i32 %89, 0
  br i1 %90, label %101, label %91

91:                                               ; preds = %85
  %92 = load ptr, ptr %5, align 8, !tbaa !110
  %93 = getelementptr inbounds nuw %struct.png_color_8_struct, ptr %92, i32 0, i32 3
  %94 = load i8, ptr %93, align 1, !tbaa !115
  %95 = zext i8 %94 to i32
  %96 = load ptr, ptr %4, align 8, !tbaa !11
  %97 = getelementptr inbounds nuw %struct.png_struct_def, ptr %96, i32 0, i32 64
  %98 = load i8, ptr %97, align 1, !tbaa !51
  %99 = zext i8 %98 to i32
  %100 = icmp sgt i32 %95, %99
  br i1 %100, label %101, label %103

101:                                              ; preds = %91, %85
  %102 = load ptr, ptr %4, align 8, !tbaa !11
  call void @png_warning(ptr noundef %102, ptr noundef @.str.20)
  store i32 1, ptr %10, align 4
  br label %141

103:                                              ; preds = %91
  %104 = load ptr, ptr %5, align 8, !tbaa !110
  %105 = getelementptr inbounds nuw %struct.png_color_8_struct, ptr %104, i32 0, i32 3
  %106 = load i8, ptr %105, align 1, !tbaa !115
  %107 = getelementptr inbounds [4 x i8], ptr %7, i64 0, i64 0
  store i8 %106, ptr %107, align 1, !tbaa !10
  store i64 1, ptr %8, align 8, !tbaa !30
  br label %108

108:                                              ; preds = %103, %84
  %109 = load i32, ptr %6, align 4, !tbaa !8
  %110 = and i32 %109, 4
  %111 = icmp ne i32 %110, 0
  br i1 %111, label %112, label %137

112:                                              ; preds = %108
  %113 = load ptr, ptr %5, align 8, !tbaa !110
  %114 = getelementptr inbounds nuw %struct.png_color_8_struct, ptr %113, i32 0, i32 4
  %115 = load i8, ptr %114, align 1, !tbaa !116
  %116 = zext i8 %115 to i32
  %117 = icmp eq i32 %116, 0
  br i1 %117, label %128, label %118

118:                                              ; preds = %112
  %119 = load ptr, ptr %5, align 8, !tbaa !110
  %120 = getelementptr inbounds nuw %struct.png_color_8_struct, ptr %119, i32 0, i32 4
  %121 = load i8, ptr %120, align 1, !tbaa !116
  %122 = zext i8 %121 to i32
  %123 = load ptr, ptr %4, align 8, !tbaa !11
  %124 = getelementptr inbounds nuw %struct.png_struct_def, ptr %123, i32 0, i32 64
  %125 = load i8, ptr %124, align 1, !tbaa !51
  %126 = zext i8 %125 to i32
  %127 = icmp sgt i32 %122, %126
  br i1 %127, label %128, label %130

128:                                              ; preds = %118, %112
  %129 = load ptr, ptr %4, align 8, !tbaa !11
  call void @png_warning(ptr noundef %129, ptr noundef @.str.20)
  store i32 1, ptr %10, align 4
  br label %141

130:                                              ; preds = %118
  %131 = load ptr, ptr %5, align 8, !tbaa !110
  %132 = getelementptr inbounds nuw %struct.png_color_8_struct, ptr %131, i32 0, i32 4
  %133 = load i8, ptr %132, align 1, !tbaa !116
  %134 = load i64, ptr %8, align 8, !tbaa !30
  %135 = add i64 %134, 1
  store i64 %135, ptr %8, align 8, !tbaa !30
  %136 = getelementptr inbounds nuw [4 x i8], ptr %7, i64 0, i64 %134
  store i8 %133, ptr %136, align 1, !tbaa !10
  br label %137

137:                                              ; preds = %130, %108
  %138 = load ptr, ptr %4, align 8, !tbaa !11
  %139 = getelementptr inbounds [4 x i8], ptr %7, i64 0, i64 0
  %140 = load i64, ptr %8, align 8, !tbaa !30
  call void @png_write_complete_chunk(ptr noundef %138, i32 noundef 1933723988, ptr noundef %139, i64 noundef %140)
  store i32 0, ptr %10, align 4
  br label %141

141:                                              ; preds = %137, %128, %101, %82
  call void @llvm.lifetime.end.p0(i64 8, ptr %8) #7
  call void @llvm.lifetime.end.p0(i64 4, ptr %7) #7
  %142 = load i32, ptr %10, align 4
  switch i32 %142, label %144 [
    i32 0, label %143
    i32 1, label %143
  ]

143:                                              ; preds = %141, %141
  ret void

144:                                              ; preds = %141
  unreachable
}