; Function Attrs: nounwind uwtable
define void @png_write_sBIT(ptr noalias noundef %0, ptr noundef readonly captures(none) %1, i32 noundef %2) local_unnamed_addr #1 {
  %4 = alloca [4 x i8], align 1
  call void @llvm.lifetime.start.p0(i64 4, ptr nonnull %4) #12
  %5 = and i32 %2, 2
  %.not = icmp eq i32 %5, 0
  %.1.sroa.gep = getelementptr inbounds nuw i8, ptr %4, i64 3
  %.1.sroa.gep43 = getelementptr inbounds nuw i8, ptr %4, i64 1
  br i1 %.not, label %32, label %6

6:                                                ; preds = %3
  %7 = icmp eq i32 %2, 3
  br i1 %7, label %12, label %8

8:                                                ; preds = %6
  %9 = getelementptr inbounds nuw i8, ptr %0, i64 625
  %10 = load i8, ptr %9, align 1, !tbaa !53
  %11 = zext i8 %10 to i32
  br label %12

12:                                               ; preds = %6, %8
  %13 = phi i32 [ %11, %8 ], [ 8, %6 ]
  %14 = load i8, ptr %1, align 1, !tbaa !148
  %15 = icmp eq i8 %14, 0
  %16 = zext i8 %14 to i32
  %17 = icmp samesign ult i32 %13, %16
  %or.cond = select i1 %15, i1 true, i1 %17
  br i1 %or.cond, label %.critedge, label %18

18:                                               ; preds = %12
  %19 = getelementptr inbounds nuw i8, ptr %1, i64 1
  %20 = load i8, ptr %19, align 1, !tbaa !149
  %21 = icmp eq i8 %20, 0
  %22 = zext i8 %20 to i32
  %23 = icmp samesign ult i32 %13, %22
  %or.cond40 = select i1 %21, i1 true, i1 %23
  br i1 %or.cond40, label %.critedge, label %24

24:                                               ; preds = %18
  %25 = getelementptr inbounds nuw i8, ptr %1, i64 2
  %26 = load i8, ptr %25, align 1, !tbaa !150
  %27 = icmp eq i8 %26, 0
  %28 = zext i8 %26 to i32
  %29 = icmp samesign ult i32 %13, %28
  %or.cond42 = select i1 %27, i1 true, i1 %29
  br i1 %or.cond42, label %.critedge, label %30

.critedge:                                        ; preds = %24, %18, %12
  tail call void @png_warning(ptr noundef %0, ptr noundef nonnull @.str.20) #12
  br label %56

30:                                               ; preds = %24
  store i8 %14, ptr %4, align 1, !tbaa !3
  store i8 %20, ptr %.1.sroa.gep43, align 1, !tbaa !3
  %31 = getelementptr inbounds nuw i8, ptr %4, i64 2
  store i8 %26, ptr %31, align 1, !tbaa !3
  br label %42

32:                                               ; preds = %3
  %33 = getelementptr inbounds nuw i8, ptr %1, i64 3
  %34 = load i8, ptr %33, align 1, !tbaa !151
  %35 = icmp eq i8 %34, 0
  br i1 %35, label %40, label %36

36:                                               ; preds = %32
  %37 = getelementptr inbounds nuw i8, ptr %0, i64 625
  %38 = load i8, ptr %37, align 1, !tbaa !53
  %39 = icmp ugt i8 %34, %38
  br i1 %39, label %40, label %41

40:                                               ; preds = %36, %32
  tail call void @png_warning(ptr noundef %0, ptr noundef nonnull @.str.20) #12
  br label %56

41:                                               ; preds = %36
  store i8 %34, ptr %4, align 1, !tbaa !3
  br label %42

42:                                               ; preds = %30, %41
  %.1.sroa.phi = phi ptr [ %.1.sroa.gep, %30 ], [ %.1.sroa.gep43, %41 ]
  %.1 = phi i64 [ 3, %30 ], [ 1, %41 ]
  %43 = and i32 %2, 4
  %.not37 = icmp eq i32 %43, 0
  br i1 %.not37, label %55, label %44

44:                                               ; preds = %42
  %45 = getelementptr inbounds nuw i8, ptr %1, i64 4
  %46 = load i8, ptr %45, align 1, !tbaa !152
  %47 = icmp eq i8 %46, 0
  br i1 %47, label %52, label %48

48:                                               ; preds = %44
  %49 = getelementptr inbounds nuw i8, ptr %0, i64 625
  %50 = load i8, ptr %49, align 1, !tbaa !53
  %51 = icmp ugt i8 %46, %50
  br i1 %51, label %52, label %53

52:                                               ; preds = %48, %44
  tail call void @png_warning(ptr noundef %0, ptr noundef nonnull @.str.20) #12
  br label %56

53:                                               ; preds = %48
  %54 = add nuw nsw i64 %.1, 1
  store i8 %46, ptr %.1.sroa.phi, align 1, !tbaa !3
  br label %55

55:                                               ; preds = %53, %42
  %.2 = phi i64 [ %54, %53 ], [ %.1, %42 ]
  call fastcc void @png_write_complete_chunk(ptr noundef %0, i32 noundef 1933723988, ptr noundef nonnull %4, i64 noundef %.2)
  br label %56

56:                                               ; preds = %.critedge, %55, %52, %40
  call void @llvm.lifetime.end.p0(i64 4, ptr nonnull %4) #12
  ret void
}